target datalayout = "e-m:e-p270:32:32-p271:32:32-p272:64:64-i64:64-i128:128-f80:128-n8:16:32:64-S128"
target triple = "x86_64-unknown-linux-gnu"

%"class.OpenColorIO_v2_4dev::(anonymous namespace)::ScaleWithOffsetRenderer" = type { %"class.OpenColorIO_v2_4dev::OpCPU", [4 x float], [4 x float] }
%"class.OpenColorIO_v2_4dev::OpCPU" = type { ptr }

; Function Attrs: mustprogress nounwind uwtable
define internal void @_ZNK19OpenColorIO_v2_4dev12_GLOBAL__N_123ScaleWithOffsetRenderer5applyEPKvPvl(ptr noundef nonnull align 8 dereferenceable(40) %this, ptr noundef %inImg, ptr noundef %outImg, i64 noundef %numPixels) unnamed_addr #5 align 2 {
entry:
  %this.addr = alloca ptr, align 8
  %inImg.addr = alloca ptr, align 8
  %outImg.addr = alloca ptr, align 8
  %numPixels.addr = alloca i64, align 8
  %in = alloca ptr, align 8
  %out = alloca ptr, align 8
  %idx = alloca i64, align 8
  store ptr %this, ptr %this.addr, align 8
  store ptr %inImg, ptr %inImg.addr, align 8
  store ptr %outImg, ptr %outImg.addr, align 8
  store i64 %numPixels, ptr %numPixels.addr, align 8
  %this1 = load ptr, ptr %this.addr, align 8
  %0 = load ptr, ptr %inImg.addr, align 8
  store ptr %0, ptr %in, align 8
  %1 = load ptr, ptr %outImg.addr, align 8
  store ptr %1, ptr %out, align 8
  store i64 0, ptr %idx, align 8
  br label %for.cond

for.cond:                                         ; preds = %for.inc, %entry
  %2 = load i64, ptr %idx, align 8
  %3 = load i64, ptr %numPixels.addr, align 8
  %cmp = icmp slt i64 %2, %3
  br i1 %cmp, label %for.body, label %for.end

for.body:                                         ; preds = %for.cond
  %4 = load ptr, ptr %in, align 8
  %arrayidx = getelementptr inbounds float, ptr %4, i64 0
  %5 = load float, ptr %arrayidx, align 4
  %m_scale = getelementptr inbounds %"class.OpenColorIO_v2_4dev::(anonymous namespace)::ScaleWithOffsetRenderer", ptr %this1, i32 0, i32 1
  %arrayidx2 = getelementptr inbounds [4 x float], ptr %m_scale, i64 0, i64 0
  %6 = load float, ptr %arrayidx2, align 8
  %m_offset = getelementptr inbounds %"class.OpenColorIO_v2_4dev::(anonymous namespace)::ScaleWithOffsetRenderer", ptr %this1, i32 0, i32 2
  %arrayidx3 = getelementptr inbounds [4 x float], ptr %m_offset, i64 0, i64 0
  %7 = load float, ptr %arrayidx3, align 8
  %8 = call float @llvm.fmuladd.f32(float %5, float %6, float %7)
  %9 = load ptr, ptr %out, align 8
  %arrayidx4 = getelementptr inbounds float, ptr %9, i64 0
  store float %8, ptr %arrayidx4, align 4
  %10 = load ptr, ptr %in, align 8
  %arrayidx5 = getelementptr inbounds float, ptr %10, i64 1
  %11 = load float, ptr %arrayidx5, align 4
  %m_scale6 = getelementptr inbounds %"class.OpenColorIO_v2_4dev::(anonymous namespace)::ScaleWithOffsetRenderer", ptr %this1, i32 0, i32 1
  %arrayidx7 = getelementptr inbounds [4 x float], ptr %m_scale6, i64 0, i64 1
  %12 = load float, ptr %arrayidx7, align 4
  %m_offset8 = getelementptr inbounds %"class.OpenColorIO_v2_4dev::(anonymous namespace)::ScaleWithOffsetRenderer", ptr %this1, i32 0, i32 2
  %arrayidx9 = getelementptr inbounds [4 x float], ptr %m_offset8, i64 0, i64 1
  %13 = load float, ptr %arrayidx9, align 4
  %14 = call float @llvm.fmuladd.f32(float %11, float %12, float %13)
  %15 = load ptr, ptr %out, align 8
  %arrayidx10 = getelementptr inbounds float, ptr %15, i64 1
  store float %14, ptr %arrayidx10, align 4
  %16 = load ptr, ptr %in, align 8
  %arrayidx11 = getelementptr inbounds float, ptr %16, i64 2
  %17 = load float, ptr %arrayidx11, align 4
  %m_scale12 = getelementptr inbounds %"class.OpenColorIO_v2_4dev::(anonymous namespace)::ScaleWithOffsetRenderer", ptr %this1, i32 0, i32 1
  %arrayidx13 = getelementptr inbounds [4 x float], ptr %m_scale12, i64 0, i64 2
  %18 = load float, ptr %arrayidx13, align 8
  %m_offset14 = getelementptr inbounds %"class.OpenColorIO_v2_4dev::(anonymous namespace)::ScaleWithOffsetRenderer", ptr %this1, i32 0, i32 2
  %arrayidx15 = getelementptr inbounds [4 x float], ptr %m_offset14, i64 0, i64 2
  %19 = load float, ptr %arrayidx15, align 8
  %20 = call float @llvm.fmuladd.f32(float %17, float %18, float %19)
  %21 = load ptr, ptr %out, align 8
  %arrayidx16 = getelementptr inbounds float, ptr %21, i64 2
  store float %20, ptr %arrayidx16, align 4
  %22 = load ptr, ptr %in, align 8
  %arrayidx17 = getelementptr inbounds float, ptr %22, i64 3
  %23 = load float, ptr %arrayidx17, align 4
  %m_scale18 = getelementptr inbounds %"class.OpenColorIO_v2_4dev::(anonymous namespace)::ScaleWithOffsetRenderer", ptr %this1, i32 0, i32 1
  %arrayidx19 = getelementptr inbounds [4 x float], ptr %m_scale18, i64 0, i64 3
  %24 = load float, ptr %arrayidx19, align 4
  %m_offset20 = getelementptr inbounds %"class.OpenColorIO_v2_4dev::(anonymous namespace)::ScaleWithOffsetRenderer", ptr %this1, i32 0, i32 2
  %arrayidx21 = getelementptr inbounds [4 x float], ptr %m_offset20, i64 0, i64 3
  %25 = load float, ptr %arrayidx21, align 4
  %26 = call float @llvm.fmuladd.f32(float %23, float %24, float %25)
  %27 = load ptr, ptr %out, align 8
  %arrayidx22 = getelementptr inbounds float, ptr %27, i64 3
  store float %26, ptr %arrayidx22, align 4
  %28 = load ptr, ptr %in, align 8
  %add.ptr = getelementptr inbounds float, ptr %28, i64 4
  store ptr %add.ptr, ptr %in, align 8
  %29 = load ptr, ptr %out, align 8
  %add.ptr23 = getelementptr inbounds float, ptr %29, i64 4
  store ptr %add.ptr23, ptr %out, align 8
  br label %for.inc

for.inc:                                          ; preds = %for.body
  %30 = load i64, ptr %idx, align 8
  %inc = add nsw i64 %30, 1
  store i64 %inc, ptr %idx, align 8
  br label %for.cond, !llvm.loop !4

for.end:                                          ; preds = %for.cond
  ret void
}