; Function Attrs: mustprogress nofree norecurse nosync nounwind memory(readwrite, inaccessiblemem: none) uwtable
define internal void @_ZNK19OpenColorIO_v2_4dev12_GLOBAL__N_123ScaleWithOffsetRenderer5applyEPKvPvl(ptr nocapture noundef nonnull readonly align 8 dereferenceable(40) %this, ptr nocapture noundef readonly %inImg, ptr nocapture noundef writeonly %outImg, i64 noundef %numPixels) unnamed_addr #8 align 2 {
entry:
  %cmp10 = icmp sgt i64 %numPixels, 0
  br i1 %cmp10, label %for.body.lr.ph, label %for.end

for.body.lr.ph:                                   ; preds = %entry
  %m_scale = getelementptr inbounds i8, ptr %this, i64 8
  %m_offset = getelementptr inbounds i8, ptr %this, i64 24
  %arrayidx7 = getelementptr inbounds i8, ptr %this, i64 12
  %arrayidx9 = getelementptr inbounds i8, ptr %this, i64 28
  %arrayidx13 = getelementptr inbounds i8, ptr %this, i64 16
  %arrayidx15 = getelementptr inbounds i8, ptr %this, i64 32
  %arrayidx19 = getelementptr inbounds i8, ptr %this, i64 20
  %arrayidx21 = getelementptr inbounds i8, ptr %this, i64 36
  br label %for.body

for.body:                                         ; preds = %for.body.lr.ph, %for.body
  %idx.013 = phi i64 [ 0, %for.body.lr.ph ], [ %inc, %for.body ]
  %out.012 = phi ptr [ %outImg, %for.body.lr.ph ], [ %add.ptr23, %for.body ]
  %in.011 = phi ptr [ %inImg, %for.body.lr.ph ], [ %add.ptr, %for.body ]
  %0 = load float, ptr %in.011, align 4
  %1 = load float, ptr %m_scale, align 8
  %2 = load float, ptr %m_offset, align 8
  %3 = tail call float @llvm.fmuladd.f32(float %0, float %1, float %2)
  store float %3, ptr %out.012, align 4
  %arrayidx5 = getelementptr inbounds i8, ptr %in.011, i64 4
  %4 = load float, ptr %arrayidx5, align 4
  %5 = load float, ptr %arrayidx7, align 4
  %6 = load float, ptr %arrayidx9, align 4
  %7 = tail call float @llvm.fmuladd.f32(float %4, float %5, float %6)
  %arrayidx10 = getelementptr inbounds i8, ptr %out.012, i64 4
  store float %7, ptr %arrayidx10, align 4
  %arrayidx11 = getelementptr inbounds i8, ptr %in.011, i64 8
  %8 = load float, ptr %arrayidx11, align 4
  %9 = load float, ptr %arrayidx13, align 8
  %10 = load float, ptr %arrayidx15, align 8
  %11 = tail call float @llvm.fmuladd.f32(float %8, float %9, float %10)
  %arrayidx16 = getelementptr inbounds i8, ptr %out.012, i64 8
  store float %11, ptr %arrayidx16, align 4
  %arrayidx17 = getelementptr inbounds i8, ptr %in.011, i64 12
  %12 = load float, ptr %arrayidx17, align 4
  %13 = load float, ptr %arrayidx19, align 4
  %14 = load float, ptr %arrayidx21, align 4
  %15 = tail call float @llvm.fmuladd.f32(float %12, float %13, float %14)
  %arrayidx22 = getelementptr inbounds i8, ptr %out.012, i64 12
  store float %15, ptr %arrayidx22, align 4
  %add.ptr = getelementptr inbounds i8, ptr %in.011, i64 16
  %add.ptr23 = getelementptr inbounds i8, ptr %out.012, i64 16
  %inc = add nuw nsw i64 %idx.013, 1
  %exitcond.not = icmp eq i64 %inc, %numPixels
  br i1 %exitcond.not, label %for.end, label %for.body, !llvm.loop !16

for.end:                                          ; preds = %for.body, %entry
  ret void
}